target datalayout = "e-m:e-p270:32:32-p271:32:32-p272:64:64-i64:64-i128:128-f80:128-n8:16:32:64-S128"
target triple = "x86_64-pc-linux-gnu"

%struct.CLAMFI = type { ptr, ptr, ptr, ptr, ptr, i32, i32, i32, i32, i32, i32, i32, i32, i32, i32, i32, [1424 x i8] }

@.str.8 = private unnamed_addr constant [3 x i8] c"\0D\0A\00", align 1

; Function Attrs: nounwind uwtable
define dso_local i32 @clamfi_body(ptr noundef %0, ptr noundef %1, i64 noundef %2) #0 {
  %4 = alloca i32, align 4
  %5 = alloca ptr, align 8
  %6 = alloca ptr, align 8
  %7 = alloca i64, align 8
  %8 = alloca ptr, align 8
  %9 = alloca i32, align 4
  store ptr %0, ptr %5, align 8
  store ptr %1, ptr %6, align 8
  store i64 %2, ptr %7, align 8
  %10 = load ptr, ptr %5, align 8
  %11 = call ptr @smfi_getpriv(ptr noundef %10)
  store ptr %11, ptr %8, align 8
  %12 = icmp ne ptr %11, null
  br i1 %12, label %14, label %13

13:                                               ; preds = %3
  store i32 0, ptr %4, align 4
  br label %43

14:                                               ; preds = %3
  %15 = load ptr, ptr %8, align 8
  %16 = getelementptr inbounds %struct.CLAMFI, ptr %15, i32 0, i32 11
  %17 = load i32, ptr %16, align 8
  %18 = icmp ne i32 %17, 0
  br i1 %18, label %31, label %19

19:                                               ; preds = %14
  %20 = load ptr, ptr %8, align 8
  %21 = load ptr, ptr %5, align 8
  %22 = call i32 @sendchunk(ptr noundef %20, ptr noundef @.str.8, i64 noundef 2, ptr noundef %21)
  store i32 %22, ptr %9, align 4
  %23 = load i32, ptr %9, align 4
  %24 = icmp ne i32 %23, 0
  br i1 %24, label %25, label %28

25:                                               ; preds = %19
  %26 = load ptr, ptr %8, align 8
  call void @free(ptr noundef %26) #9
  %27 = load i32, ptr %9, align 4
  store i32 %27, ptr %4, align 4
  br label %43

28:                                               ; preds = %19
  %29 = load ptr, ptr %8, align 8
  %30 = getelementptr inbounds %struct.CLAMFI, ptr %29, i32 0, i32 11
  store i32 1, ptr %30, align 8
  br label %31

31:                                               ; preds = %28, %14
  %32 = load ptr, ptr %8, align 8
  %33 = load ptr, ptr %6, align 8
  %34 = load i64, ptr %7, align 8
  %35 = load ptr, ptr %5, align 8
  %36 = call i32 @sendchunk(ptr noundef %32, ptr noundef %33, i64 noundef %34, ptr noundef %35)
  store i32 %36, ptr %9, align 4
  %37 = load i32, ptr %9, align 4
  %38 = icmp ne i32 %37, 0
  br i1 %38, label %39, label %41

39:                                               ; preds = %31
  %40 = load ptr, ptr %8, align 8
  call void @free(ptr noundef %40) #9
  br label %41

41:                                               ; preds = %39, %31
  %42 = load i32, ptr %9, align 4
  store i32 %42, ptr %4, align 4
  br label %43

43:                                               ; preds = %41, %25, %13
  %44 = load i32, ptr %4, align 4
  ret i32 %44
}