; Function Attrs: nounwind uwtable
define dso_local i32 @clamfi_body(ptr noundef %0, ptr noundef %1, i64 noundef %2) local_unnamed_addr #0 {
  %4 = tail call ptr @smfi_getpriv(ptr noundef %0) #17
  %.not = icmp eq ptr %4, null
  br i1 %.not, label %13, label %5

5:                                                ; preds = %3
  %6 = getelementptr inbounds i8, ptr %4, i64 64
  %7 = load i32, ptr %6, align 8
  %.not17 = icmp eq i32 %7, 0
  br i1 %.not17, label %8, label %11

8:                                                ; preds = %5
  %9 = tail call fastcc i32 @sendchunk(ptr noundef nonnull %4, ptr noundef nonnull @.str.8, i64 noundef 2, ptr noundef %0)
  %.not18 = icmp eq i32 %9, 0
  br i1 %.not18, label %10, label %.sink.split

10:                                               ; preds = %8
  store i32 1, ptr %6, align 8
  br label %11

11:                                               ; preds = %10, %5
  %12 = tail call fastcc i32 @sendchunk(ptr noundef nonnull %4, ptr noundef %1, i64 noundef %2, ptr noundef %0)
  %.not19 = icmp eq i32 %12, 0
  br i1 %.not19, label %13, label %.sink.split

.sink.split:                                      ; preds = %11, %8
  %.0.ph = phi i32 [ %9, %8 ], [ %12, %11 ]
  tail call void @free(ptr noundef nonnull %4) #17
  br label %13

13:                                               ; preds = %.sink.split, %11, %3
  %.0 = phi i32 [ 0, %3 ], [ 0, %11 ], [ %.0.ph, %.sink.split ]
  ret i32 %.0
}